; Function Attrs: mustprogress nofree nounwind willreturn memory(read) uwtable
define hidden noundef zeroext i1 @_ZNK2cv10PxMDecoder14checkSignatureERKNSt7__cxx1112basic_stringIcSt11char_traitsIcESaIcEEE(ptr nonnull readnone align 8 captures(none) %0, ptr noundef nonnull readonly align 8 captures(none) dereferenceable(32) %1) unnamed_addr #9 align 2 {
  %3 = getelementptr inbounds nuw i8, ptr %1, i64 8
  %4 = load i64, ptr %3, align 8, !tbaa !65
  %5 = icmp ugt i64 %4, 2
  br i1 %5, label %6, label %20

6:                                                ; preds = %2
  %7 = load ptr, ptr %1, align 8, !tbaa !64
  %8 = load i8, ptr %7, align 1, !tbaa !66
  %9 = icmp eq i8 %8, 80
  br i1 %9, label %10, label %20

10:                                               ; preds = %6
  %11 = getelementptr inbounds nuw i8, ptr %7, i64 1
  %12 = load i8, ptr %11, align 1, !tbaa !66
  %13 = add i8 %12, -49
  %or.cond = icmp ult i8 %13, 6
  br i1 %or.cond, label %14, label %20

14:                                               ; preds = %10
  %15 = getelementptr inbounds nuw i8, ptr %7, i64 2
  %16 = load i8, ptr %15, align 1, !tbaa !66
  %17 = sext i8 %16 to i32
  %18 = tail call i32 @isspace(i32 noundef %17) #28
  %19 = icmp ne i32 %18, 0
  br label %20

20:                                               ; preds = %14, %10, %6, %2
  %21 = phi i1 [ false, %10 ], [ false, %6 ], [ false, %2 ], [ %19, %14 ]
  ret i1 %21
}